target datalayout = "e-m:e-p270:32:32-p271:32:32-p272:64:64-i64:64-i128:128-f80:128-n8:16:32:64-S128"
target triple = "x86_64-pc-linux-gnu"

%union.__SOCKADDR_ARG = type { ptr }
%struct.ClientSocket = type { i32, %struct.SockAddr }
%struct.SockAddr = type { %struct.sockaddr_storage, i32 }
%struct.sockaddr_storage = type { i16, [118 x i8], i64 }
%struct.Port = type { i32, i8, i32, %struct.SockAddr, %struct.SockAddr, ptr, ptr, i32, i32, ptr, ptr, ptr, ptr, ptr, ptr, ptr, i32, i32, i32, i32, i32, i32, i32, i32, [32 x i8], [32 x i8], i8, ptr, i8, ptr, ptr, i8, i8, i8, ptr, ptr, ptr, i64, i64 }

@.str = private unnamed_addr constant [16 x i8] c"%s() failed: %m\00", align 1
@.str.1 = private unnamed_addr constant [12 x i8] c"getsockname\00", align 1
@.str.2 = private unnamed_addr constant [9 x i8] c"pqcomm.c\00", align 1
@__func__.pq_init = private unnamed_addr constant [8 x i8] c"pq_init\00", align 1
@.str.3 = private unnamed_addr constant [18 x i8] c"%s(%s) failed: %m\00", align 1
@.str.4 = private unnamed_addr constant [11 x i8] c"setsockopt\00", align 1
@.str.5 = private unnamed_addr constant [12 x i8] c"TCP_NODELAY\00", align 1
@.str.6 = private unnamed_addr constant [13 x i8] c"SO_KEEPALIVE\00", align 1
@tcp_keepalives_idle = external global i32, align 4
@tcp_keepalives_interval = external global i32, align 4
@tcp_keepalives_count = external global i32, align 4
@tcp_user_timeout = external global i32, align 4
@PqSendBufferSize = internal global i32 0, align 4
@TopMemoryContext = external global ptr, align 8
@PqSendBuffer = internal global ptr null, align 8
@PqRecvLength = internal global i32 0, align 4
@PqRecvPointer = internal global i32 0, align 4
@PqSendStart = internal global i64 0, align 8
@PqSendPointer = internal global i64 0, align 8
@PqCommBusy = internal global i8 0, align 1
@PqCommReadingMsg = internal global i8 0, align 1
@.str.7 = private unnamed_addr constant [45 x i8] c"could not set socket to nonblocking mode: %m\00", align 1
@.str.8 = private unnamed_addr constant [36 x i8] c"fcntl(F_SETFD) failed on socket: %m\00", align 1
@FeBeWaitSet = dso_local global ptr null, align 8
@MyLatch = external global ptr, align 8

; Function Attrs: nounwind uwtable
define dso_local ptr @pq_init(ptr noundef %0) #0 {
  %2 = alloca ptr, align 8
  %3 = alloca ptr, align 8
  %4 = alloca i32, align 4
  %5 = alloca i32, align 4
  %6 = alloca %union.__SOCKADDR_ARG, align 8
  %7 = alloca i32, align 4
  store ptr %0, ptr %2, align 8
  call void @llvm.lifetime.start.p0(i64 8, ptr %3) #14
  call void @llvm.lifetime.start.p0(i64 4, ptr %4) #14
  call void @llvm.lifetime.start.p0(i64 4, ptr %5) #14
  %8 = call ptr @palloc0(i64 noundef 552)
  store ptr %8, ptr %3, align 8
  %9 = load ptr, ptr %2, align 8
  %10 = getelementptr inbounds nuw %struct.ClientSocket, ptr %9, i32 0, i32 0
  %11 = load i32, ptr %10, align 8
  %12 = load ptr, ptr %3, align 8
  %13 = getelementptr inbounds nuw %struct.Port, ptr %12, i32 0, i32 0
  store i32 %11, ptr %13, align 8
  %14 = load ptr, ptr %3, align 8
  %15 = getelementptr inbounds nuw %struct.Port, ptr %14, i32 0, i32 4
  %16 = getelementptr inbounds nuw %struct.SockAddr, ptr %15, i32 0, i32 0
  %17 = load ptr, ptr %2, align 8
  %18 = getelementptr inbounds nuw %struct.ClientSocket, ptr %17, i32 0, i32 1
  %19 = getelementptr inbounds nuw %struct.SockAddr, ptr %18, i32 0, i32 0
  %20 = load ptr, ptr %2, align 8
  %21 = getelementptr inbounds nuw %struct.ClientSocket, ptr %20, i32 0, i32 1
  %22 = getelementptr inbounds nuw %struct.SockAddr, ptr %21, i32 0, i32 1
  %23 = load i32, ptr %22, align 8
  %24 = zext i32 %23 to i64
  call void @llvm.memcpy.p0.p0.i64(ptr align 8 %16, ptr align 8 %19, i64 %24, i1 false)
  %25 = load ptr, ptr %2, align 8
  %26 = getelementptr inbounds nuw %struct.ClientSocket, ptr %25, i32 0, i32 1
  %27 = getelementptr inbounds nuw %struct.SockAddr, ptr %26, i32 0, i32 1
  %28 = load i32, ptr %27, align 8
  %29 = load ptr, ptr %3, align 8
  %30 = getelementptr inbounds nuw %struct.Port, ptr %29, i32 0, i32 4
  %31 = getelementptr inbounds nuw %struct.SockAddr, ptr %30, i32 0, i32 1
  store i32 %28, ptr %31, align 8
  %32 = load ptr, ptr %3, align 8
  %33 = getelementptr inbounds nuw %struct.Port, ptr %32, i32 0, i32 3
  %34 = getelementptr inbounds nuw %struct.SockAddr, ptr %33, i32 0, i32 1
  store i32 128, ptr %34, align 8
  %35 = load ptr, ptr %3, align 8
  %36 = getelementptr inbounds nuw %struct.Port, ptr %35, i32 0, i32 0
  %37 = load i32, ptr %36, align 8
  %38 = load ptr, ptr %3, align 8
  %39 = getelementptr inbounds nuw %struct.Port, ptr %38, i32 0, i32 3
  %40 = getelementptr inbounds nuw %struct.SockAddr, ptr %39, i32 0, i32 0
  store ptr %40, ptr %6, align 8
  %41 = load ptr, ptr %3, align 8
  %42 = getelementptr inbounds nuw %struct.Port, ptr %41, i32 0, i32 3
  %43 = getelementptr inbounds nuw %struct.SockAddr, ptr %42, i32 0, i32 1
  %44 = getelementptr inbounds nuw %union.__SOCKADDR_ARG, ptr %6, i32 0, i32 0
  %45 = load ptr, ptr %44, align 8
  %46 = call i32 @getsockname(i32 noundef %37, ptr %45, ptr noundef %43) #14
  %47 = icmp slt i32 %46, 0
  br i1 %47, label %48, label %59

48:                                               ; preds = %1
  br label %49

49:                                               ; preds = %48
  br i1 true, label %50, label %52

50:                                               ; preds = %49
  %51 = call zeroext i1 @errstart_cold(i32 noundef 22, ptr noundef null) #15
  br i1 %51, label %54, label %56

52:                                               ; preds = %49
  %53 = call zeroext i1 @errstart(i32 noundef 22, ptr noundef null)
  br i1 %53, label %54, label %56

54:                                               ; preds = %52, %50
  %55 = call i32 (ptr, ...) @errmsg(ptr noundef @.str, ptr noundef @.str.1)
  call void @errfinish(ptr noundef @.str.2, i32 noundef 193, ptr noundef @__func__.pq_init)
  br label %56

56:                                               ; preds = %54, %52, %50
  unreachable

57:                                               ; No predecessors!
  br label %58

58:                                               ; preds = %57
  br label %59

59:                                               ; preds = %58, %1
  %60 = load ptr, ptr %3, align 8
  %61 = getelementptr inbounds nuw %struct.Port, ptr %60, i32 0, i32 3
  %62 = getelementptr inbounds nuw %struct.SockAddr, ptr %61, i32 0, i32 0
  %63 = getelementptr inbounds nuw %struct.sockaddr_storage, ptr %62, i32 0, i32 0
  %64 = load i16, ptr %63, align 8
  %65 = zext i16 %64 to i32
  %66 = icmp ne i32 %65, 1
  br i1 %66, label %67, label %114

67:                                               ; preds = %59
  call void @llvm.lifetime.start.p0(i64 4, ptr %7) #14
  store i32 1, ptr %7, align 4
  %68 = load ptr, ptr %3, align 8
  %69 = getelementptr inbounds nuw %struct.Port, ptr %68, i32 0, i32 0
  %70 = load i32, ptr %69, align 8
  %71 = call i32 @setsockopt(i32 noundef %70, i32 noundef 6, i32 noundef 1, ptr noundef %7, i32 noundef 4) #14
  %72 = icmp slt i32 %71, 0
  br i1 %72, label %73, label %84

73:                                               ; preds = %67
  br label %74

74:                                               ; preds = %73
  br i1 true, label %75, label %77

75:                                               ; preds = %74
  %76 = call zeroext i1 @errstart_cold(i32 noundef 22, ptr noundef null) #15
  br i1 %76, label %79, label %81

77:                                               ; preds = %74
  %78 = call zeroext i1 @errstart(i32 noundef 22, ptr noundef null)
  br i1 %78, label %79, label %81

79:                                               ; preds = %77, %75
  %80 = call i32 (ptr, ...) @errmsg(ptr noundef @.str.3, ptr noundef @.str.4, ptr noundef @.str.5)
  call void @errfinish(ptr noundef @.str.2, i32 noundef 212, ptr noundef @__func__.pq_init)
  br label %81

81:                                               ; preds = %79, %77, %75
  unreachable

82:                                               ; No predecessors!
  br label %83

83:                                               ; preds = %82
  br label %84

84:                                               ; preds = %83, %67
  store i32 1, ptr %7, align 4
  %85 = load ptr, ptr %3, align 8
  %86 = getelementptr inbounds nuw %struct.Port, ptr %85, i32 0, i32 0
  %87 = load i32, ptr %86, align 8
  %88 = call i32 @setsockopt(i32 noundef %87, i32 noundef 1, i32 noundef 9, ptr noundef %7, i32 noundef 4) #14
  %89 = icmp slt i32 %88, 0
  br i1 %89, label %90, label %101

90:                                               ; preds = %84
  br label %91

91:                                               ; preds = %90
  br i1 true, label %92, label %94

92:                                               ; preds = %91
  %93 = call zeroext i1 @errstart_cold(i32 noundef 22, ptr noundef null) #15
  br i1 %93, label %96, label %98

94:                                               ; preds = %91
  %95 = call zeroext i1 @errstart(i32 noundef 22, ptr noundef null)
  br i1 %95, label %96, label %98

96:                                               ; preds = %94, %92
  %97 = call i32 (ptr, ...) @errmsg(ptr noundef @.str.3, ptr noundef @.str.4, ptr noundef @.str.6)
  call void @errfinish(ptr noundef @.str.2, i32 noundef 220, ptr noundef @__func__.pq_init)
  br label %98

98:                                               ; preds = %96, %94, %92
  unreachable

99:                                               ; No predecessors!
  br label %100

100:                                              ; preds = %99
  br label %101

101:                                              ; preds = %100, %84
  %102 = load i32, ptr @tcp_keepalives_idle, align 4
  %103 = load ptr, ptr %3, align 8
  %104 = call i32 @pq_setkeepalivesidle(i32 noundef %102, ptr noundef %103)
  %105 = load i32, ptr @tcp_keepalives_interval, align 4
  %106 = load ptr, ptr %3, align 8
  %107 = call i32 @pq_setkeepalivesinterval(i32 noundef %105, ptr noundef %106)
  %108 = load i32, ptr @tcp_keepalives_count, align 4
  %109 = load ptr, ptr %3, align 8
  %110 = call i32 @pq_setkeepalivescount(i32 noundef %108, ptr noundef %109)
  %111 = load i32, ptr @tcp_user_timeout, align 4
  %112 = load ptr, ptr %3, align 8
  %113 = call i32 @pq_settcpusertimeout(i32 noundef %111, ptr noundef %112)
  call void @llvm.lifetime.end.p0(i64 4, ptr %7) #14
  br label %114

114:                                              ; preds = %101, %59
  store i32 8192, ptr @PqSendBufferSize, align 4
  %115 = load ptr, ptr @TopMemoryContext, align 8
  %116 = load i32, ptr @PqSendBufferSize, align 4
  %117 = sext i32 %116 to i64
  %118 = call ptr @MemoryContextAlloc(ptr noundef %115, i64 noundef %117)
  store ptr %118, ptr @PqSendBuffer, align 8
  store i32 0, ptr @PqRecvLength, align 4
  store i32 0, ptr @PqRecvPointer, align 4
  store i64 0, ptr @PqSendStart, align 8
  store i64 0, ptr @PqSendPointer, align 8
  store i8 0, ptr @PqCommBusy, align 1
  store i8 0, ptr @PqCommReadingMsg, align 1
  call void @on_proc_exit(ptr noundef @socket_close, i64 noundef 0)
  %119 = load ptr, ptr %3, align 8
  %120 = getelementptr inbounds nuw %struct.Port, ptr %119, i32 0, i32 0
  %121 = load i32, ptr %120, align 8
  %122 = call zeroext i1 @pg_set_noblock(i32 noundef %121)
  br i1 %122, label %134, label %123

123:                                              ; preds = %114
  br label %124

124:                                              ; preds = %123
  br i1 true, label %125, label %127

125:                                              ; preds = %124
  %126 = call zeroext i1 @errstart_cold(i32 noundef 22, ptr noundef null) #15
  br i1 %126, label %129, label %131

127:                                              ; preds = %124
  %128 = call zeroext i1 @errstart(i32 noundef 22, ptr noundef null)
  br i1 %128, label %129, label %131

129:                                              ; preds = %127, %125
  %130 = call i32 (ptr, ...) @errmsg(ptr noundef @.str.7)
  call void @errfinish(ptr noundef @.str.2, i32 noundef 297, ptr noundef @__func__.pq_init)
  br label %131

131:                                              ; preds = %129, %127, %125
  unreachable

132:                                              ; No predecessors!
  br label %133

133:                                              ; preds = %132
  br label %134

134:                                              ; preds = %133, %114
  %135 = load ptr, ptr %3, align 8
  %136 = getelementptr inbounds nuw %struct.Port, ptr %135, i32 0, i32 0
  %137 = load i32, ptr %136, align 8
  %138 = call i32 (i32, i32, ...) @fcntl(i32 noundef %137, i32 noundef 2, i32 noundef 1)
  %139 = icmp slt i32 %138, 0
  br i1 %139, label %140, label %151

140:                                              ; preds = %134
  br label %141

141:                                              ; preds = %140
  br i1 true, label %142, label %144

142:                                              ; preds = %141
  %143 = call zeroext i1 @errstart_cold(i32 noundef 22, ptr noundef null) #15
  br i1 %143, label %146, label %148

144:                                              ; preds = %141
  %145 = call zeroext i1 @errstart(i32 noundef 22, ptr noundef null)
  br i1 %145, label %146, label %148

146:                                              ; preds = %144, %142
  %147 = call i32 (ptr, ...) @errmsg_internal(ptr noundef @.str.8)
  call void @errfinish(ptr noundef @.str.2, i32 noundef 304, ptr noundef @__func__.pq_init)
  br label %148

148:                                              ; preds = %146, %144, %142
  unreachable

149:                                              ; No predecessors!
  br label %150

150:                                              ; preds = %149
  br label %151

151:                                              ; preds = %150, %134
  %152 = call ptr @CreateWaitEventSet(ptr noundef null, i32 noundef 3)
  store ptr %152, ptr @FeBeWaitSet, align 8
  %153 = load ptr, ptr @FeBeWaitSet, align 8
  %154 = load ptr, ptr %3, align 8
  %155 = getelementptr inbounds nuw %struct.Port, ptr %154, i32 0, i32 0
  %156 = load i32, ptr %155, align 8
  %157 = call i32 @AddWaitEventToSet(ptr noundef %153, i32 noundef 4, i32 noundef %156, ptr noundef null, ptr noundef null)
  store i32 %157, ptr %4, align 4
  %158 = load ptr, ptr @FeBeWaitSet, align 8
  %159 = load ptr, ptr @MyLatch, align 8
  %160 = call i32 @AddWaitEventToSet(ptr noundef %158, i32 noundef 1, i32 noundef -1, ptr noundef %159, ptr noundef null)
  store i32 %160, ptr %5, align 4
  %161 = load ptr, ptr @FeBeWaitSet, align 8
  %162 = call i32 @AddWaitEventToSet(ptr noundef %161, i32 noundef 16, i32 noundef -1, ptr noundef null, ptr noundef null)
  %163 = load ptr, ptr %3, align 8
  call void @llvm.lifetime.end.p0(i64 4, ptr %5) #14
  call void @llvm.lifetime.end.p0(i64 4, ptr %4) #14
  call void @llvm.lifetime.end.p0(i64 8, ptr %3) #14
  ret ptr %163
}