; Function Attrs: nounwind uwtable
define dso_local noundef ptr @pq_init(ptr noundef readonly captures(none) %0) local_unnamed_addr #0 {
  %2 = alloca i32, align 4
  %3 = tail call ptr @palloc0(i64 noundef 552) #21
  %4 = load i32, ptr %0, align 8
  store i32 %4, ptr %3, align 8
  %5 = getelementptr inbounds nuw i8, ptr %3, i64 152
  %6 = getelementptr inbounds nuw i8, ptr %0, i64 8
  %7 = getelementptr inbounds nuw i8, ptr %0, i64 136
  %8 = load i32, ptr %7, align 8
  %9 = zext i32 %8 to i64
  tail call void @llvm.memcpy.p0.p0.i64(ptr nonnull align 8 %5, ptr nonnull align 8 %6, i64 %9, i1 false)
  %10 = load i32, ptr %7, align 8
  %11 = getelementptr inbounds nuw i8, ptr %3, i64 280
  store i32 %10, ptr %11, align 8
  %12 = getelementptr inbounds nuw i8, ptr %3, i64 16
  %13 = getelementptr inbounds nuw i8, ptr %3, i64 144
  store i32 128, ptr %13, align 8
  %14 = tail call i32 @getsockname(i32 noundef %4, ptr nonnull %12, ptr noundef nonnull %13) #21
  %15 = icmp slt i32 %14, 0
  br i1 %15, label %16, label %19

16:                                               ; preds = %1
  %17 = tail call zeroext i1 @errstart_cold(i32 noundef 22, ptr noundef null) #22
  tail call void @llvm.assume(i1 %17)
  %18 = tail call i32 (ptr, ...) @errmsg(ptr noundef nonnull @.str, ptr noundef nonnull @.str.1) #21
  tail call void @errfinish(ptr noundef nonnull @.str.2, i32 noundef 193, ptr noundef nonnull @__func__.pq_init) #21
  unreachable

19:                                               ; preds = %1
  %20 = load i16, ptr %12, align 8
  %.not = icmp eq i16 %20, 1
  br i1 %.not, label %44, label %21

21:                                               ; preds = %19
  call void @llvm.lifetime.start.p0(i64 4, ptr nonnull %2) #21
  store i32 1, ptr %2, align 4
  %22 = load i32, ptr %3, align 8
  %23 = call i32 @setsockopt(i32 noundef %22, i32 noundef 6, i32 noundef 1, ptr noundef nonnull %2, i32 noundef 4) #21
  %24 = icmp slt i32 %23, 0
  br i1 %24, label %25, label %28

25:                                               ; preds = %21
  %26 = call zeroext i1 @errstart_cold(i32 noundef 22, ptr noundef null) #22
  call void @llvm.assume(i1 %26)
  %27 = call i32 (ptr, ...) @errmsg(ptr noundef nonnull @.str.3, ptr noundef nonnull @.str.4, ptr noundef nonnull @.str.5) #21
  call void @errfinish(ptr noundef nonnull @.str.2, i32 noundef 212, ptr noundef nonnull @__func__.pq_init) #21
  unreachable

28:                                               ; preds = %21
  store i32 1, ptr %2, align 4
  %29 = load i32, ptr %3, align 8
  %30 = call i32 @setsockopt(i32 noundef %29, i32 noundef 1, i32 noundef 9, ptr noundef nonnull %2, i32 noundef 4) #21
  %31 = icmp slt i32 %30, 0
  br i1 %31, label %32, label %35

32:                                               ; preds = %28
  %33 = call zeroext i1 @errstart_cold(i32 noundef 22, ptr noundef null) #22
  call void @llvm.assume(i1 %33)
  %34 = call i32 (ptr, ...) @errmsg(ptr noundef nonnull @.str.3, ptr noundef nonnull @.str.4, ptr noundef nonnull @.str.6) #21
  call void @errfinish(ptr noundef nonnull @.str.2, i32 noundef 220, ptr noundef nonnull @__func__.pq_init) #21
  unreachable

35:                                               ; preds = %28
  %36 = load i32, ptr @tcp_keepalives_idle, align 4
  %37 = call i32 @pq_setkeepalivesidle(i32 noundef %36, ptr noundef nonnull %3)
  %38 = load i32, ptr @tcp_keepalives_interval, align 4
  %39 = call i32 @pq_setkeepalivesinterval(i32 noundef %38, ptr noundef nonnull %3)
  %40 = load i32, ptr @tcp_keepalives_count, align 4
  %41 = call i32 @pq_setkeepalivescount(i32 noundef %40, ptr noundef nonnull %3)
  %42 = load i32, ptr @tcp_user_timeout, align 4
  %43 = call i32 @pq_settcpusertimeout(i32 noundef %42, ptr noundef nonnull %3)
  call void @llvm.lifetime.end.p0(i64 4, ptr nonnull %2) #21
  br label %44

44:                                               ; preds = %35, %19
  store i32 8192, ptr @PqSendBufferSize, align 4
  %45 = load ptr, ptr @TopMemoryContext, align 8
  %46 = call ptr @MemoryContextAlloc(ptr noundef %45, i64 noundef 8192) #21
  store ptr %46, ptr @PqSendBuffer, align 8
  store i32 0, ptr @PqRecvLength, align 4
  store i32 0, ptr @PqRecvPointer, align 4
  store i64 0, ptr @PqSendStart, align 8
  store i64 0, ptr @PqSendPointer, align 8
  store i1 false, ptr @PqCommBusy, align 1
  store i1 false, ptr @PqCommReadingMsg, align 1
  call void @on_proc_exit(ptr noundef nonnull @socket_close, i64 noundef 0) #21
  %47 = load i32, ptr %3, align 8
  %48 = call zeroext i1 @pg_set_noblock(i32 noundef %47) #21
  br i1 %48, label %52, label %49

49:                                               ; preds = %44
  %50 = call zeroext i1 @errstart_cold(i32 noundef 22, ptr noundef null) #22
  call void @llvm.assume(i1 %50)
  %51 = call i32 (ptr, ...) @errmsg(ptr noundef nonnull @.str.7) #21
  call void @errfinish(ptr noundef nonnull @.str.2, i32 noundef 297, ptr noundef nonnull @__func__.pq_init) #21
  unreachable

52:                                               ; preds = %44
  %53 = load i32, ptr %3, align 8
  %54 = call i32 (i32, i32, ...) @fcntl(i32 noundef %53, i32 noundef 2, i32 noundef 1) #21
  %55 = icmp slt i32 %54, 0
  br i1 %55, label %56, label %59

56:                                               ; preds = %52
  %57 = call zeroext i1 @errstart_cold(i32 noundef 22, ptr noundef null) #22
  call void @llvm.assume(i1 %57)
  %58 = call i32 (ptr, ...) @errmsg_internal(ptr noundef nonnull @.str.8) #21
  call void @errfinish(ptr noundef nonnull @.str.2, i32 noundef 304, ptr noundef nonnull @__func__.pq_init) #21
  unreachable

59:                                               ; preds = %52
  %60 = call ptr @CreateWaitEventSet(ptr noundef null, i32 noundef 3) #21
  store ptr %60, ptr @FeBeWaitSet, align 8
  %61 = load i32, ptr %3, align 8
  %62 = call i32 @AddWaitEventToSet(ptr noundef %60, i32 noundef 4, i32 noundef %61, ptr noundef null, ptr noundef null) #21
  %63 = load ptr, ptr @FeBeWaitSet, align 8
  %64 = load ptr, ptr @MyLatch, align 8
  %65 = call i32 @AddWaitEventToSet(ptr noundef %63, i32 noundef 1, i32 noundef -1, ptr noundef %64, ptr noundef null) #21
  %66 = load ptr, ptr @FeBeWaitSet, align 8
  %67 = call i32 @AddWaitEventToSet(ptr noundef %66, i32 noundef 16, i32 noundef -1, ptr noundef null, ptr noundef null) #21
  ret ptr %3
}